target datalayout = "e-m:e-p270:32:32-p271:32:32-p272:64:64-i64:64-i128:128-f80:128-n8:16:32:64-S128"
target triple = "x86_64-pc-linux-gnu"

%"class.pxrInternal_v0_24__pxrReserved__::GfVec4i" = type { [4 x i32] }
%"class.pxrInternal_v0_24__pxrReserved__::GfVec4d" = type { [4 x double] }

; Function Attrs: mustprogress nounwind uwtable
define linkonce_odr noundef nonnull align 8 dereferenceable(8) ptr @_ZNK32pxrInternal_v0_24__pxrReserved__7GfVec4dixEm(ptr noundef nonnull align 8 dereferenceable(32) %0, i64 noundef %1) #2 comdat align 2 {
  %3 = alloca ptr, align 8
  %4 = alloca i64, align 8
  store ptr %0, ptr %3, align 8
  store i64 %1, ptr %4, align 8
  %5 = load ptr, ptr %3, align 8
  %6 = getelementptr inbounds nuw %"class.pxrInternal_v0_24__pxrReserved__::GfVec4d", ptr %5, i32 0, i32 0
  %7 = load i64, ptr %4, align 8
  %8 = getelementptr inbounds [4 x double], ptr %6, i64 0, i64 %7
  ret ptr %8
}

; Function Attrs: mustprogress uwtable
define noundef zeroext i1 @_ZNK32pxrInternal_v0_24__pxrReserved__7GfVec4ieqERKNS_7GfVec4dE(ptr noundef nonnull align 4 dereferenceable(16) %0, ptr noundef nonnull align 8 dereferenceable(32) %1) #0 align 2 {
  %3 = alloca ptr, align 8
  %4 = alloca ptr, align 8
  store ptr %0, ptr %3, align 8
  store ptr %1, ptr %4, align 8
  %5 = load ptr, ptr %3, align 8
  %6 = getelementptr inbounds nuw %"class.pxrInternal_v0_24__pxrReserved__::GfVec4i", ptr %5, i32 0, i32 0
  %7 = getelementptr inbounds [4 x i32], ptr %6, i64 0, i64 0
  %8 = load i32, ptr %7, align 4
  %9 = sitofp i32 %8 to double
  %10 = load ptr, ptr %4, align 8
  %11 = call noundef nonnull align 8 dereferenceable(8) ptr @_ZNK32pxrInternal_v0_24__pxrReserved__7GfVec4dixEm(ptr noundef nonnull align 8 dereferenceable(32) %10, i64 noundef 0)
  %12 = load double, ptr %11, align 8
  %13 = fcmp oeq double %9, %12
  br i1 %13, label %14, label %41

14:                                               ; preds = %2
  %15 = getelementptr inbounds nuw %"class.pxrInternal_v0_24__pxrReserved__::GfVec4i", ptr %5, i32 0, i32 0
  %16 = getelementptr inbounds [4 x i32], ptr %15, i64 0, i64 1
  %17 = load i32, ptr %16, align 4
  %18 = sitofp i32 %17 to double
  %19 = load ptr, ptr %4, align 8
  %20 = call noundef nonnull align 8 dereferenceable(8) ptr @_ZNK32pxrInternal_v0_24__pxrReserved__7GfVec4dixEm(ptr noundef nonnull align 8 dereferenceable(32) %19, i64 noundef 1)
  %21 = load double, ptr %20, align 8
  %22 = fcmp oeq double %18, %21
  br i1 %22, label %23, label %41

23:                                               ; preds = %14
  %24 = getelementptr inbounds nuw %"class.pxrInternal_v0_24__pxrReserved__::GfVec4i", ptr %5, i32 0, i32 0
  %25 = getelementptr inbounds [4 x i32], ptr %24, i64 0, i64 2
  %26 = load i32, ptr %25, align 4
  %27 = sitofp i32 %26 to double
  %28 = load ptr, ptr %4, align 8
  %29 = call noundef nonnull align 8 dereferenceable(8) ptr @_ZNK32pxrInternal_v0_24__pxrReserved__7GfVec4dixEm(ptr noundef nonnull align 8 dereferenceable(32) %28, i64 noundef 2)
  %30 = load double, ptr %29, align 8
  %31 = fcmp oeq double %27, %30
  br i1 %31, label %32, label %41

32:                                               ; preds = %23
  %33 = getelementptr inbounds nuw %"class.pxrInternal_v0_24__pxrReserved__::GfVec4i", ptr %5, i32 0, i32 0
  %34 = getelementptr inbounds [4 x i32], ptr %33, i64 0, i64 3
  %35 = load i32, ptr %34, align 4
  %36 = sitofp i32 %35 to double
  %37 = load ptr, ptr %4, align 8
  %38 = call noundef nonnull align 8 dereferenceable(8) ptr @_ZNK32pxrInternal_v0_24__pxrReserved__7GfVec4dixEm(ptr noundef nonnull align 8 dereferenceable(32) %37, i64 noundef 3)
  %39 = load double, ptr %38, align 8
  %40 = fcmp oeq double %36, %39
  br label %41

41:                                               ; preds = %32, %23, %14, %2
  %42 = phi i1 [ false, %23 ], [ false, %14 ], [ false, %2 ], [ %40, %32 ]
  ret i1 %42
}